target datalayout = "e-m:e-p270:32:32-p271:32:32-p272:64:64-i64:64-i128:128-f80:128-n8:16:32:64-S128"
target triple = "x86_64-pc-linux-gnu"

@.str = private unnamed_addr constant [26 x i8] c"../qemu/tcg/tcg-op-ldst.c\00", align 1
@__func__.tcg_gen_ext_i32 = private unnamed_addr constant [16 x i8] c"tcg_gen_ext_i32\00", align 1

; Function Attrs: nounwind sspstrong uwtable
define dso_local void @tcg_gen_ext_i32(ptr noundef %0, ptr noundef %1, i32 noundef %2) #0 {
  %4 = alloca ptr, align 8
  %5 = alloca ptr, align 8
  %6 = alloca i32, align 4
  store ptr %0, ptr %4, align 8
  store ptr %1, ptr %5, align 8
  store i32 %2, ptr %6, align 4
  %7 = load i32, ptr %6, align 4
  %8 = and i32 %7, 15
  switch i32 %8, label %24 [
    i32 8, label %9
    i32 0, label %12
    i32 9, label %15
    i32 1, label %18
    i32 2, label %21
    i32 10, label %21
  ]

9:                                                ; preds = %3
  %10 = load ptr, ptr %4, align 8
  %11 = load ptr, ptr %5, align 8
  call void @tcg_gen_ext8s_i32(ptr noundef %10, ptr noundef %11)
  br label %27

12:                                               ; preds = %3
  %13 = load ptr, ptr %4, align 8
  %14 = load ptr, ptr %5, align 8
  call void @tcg_gen_ext8u_i32(ptr noundef %13, ptr noundef %14)
  br label %27

15:                                               ; preds = %3
  %16 = load ptr, ptr %4, align 8
  %17 = load ptr, ptr %5, align 8
  call void @tcg_gen_ext16s_i32(ptr noundef %16, ptr noundef %17)
  br label %27

18:                                               ; preds = %3
  %19 = load ptr, ptr %4, align 8
  %20 = load ptr, ptr %5, align 8
  call void @tcg_gen_ext16u_i32(ptr noundef %19, ptr noundef %20)
  br label %27

21:                                               ; preds = %3, %3
  %22 = load ptr, ptr %4, align 8
  %23 = load ptr, ptr %5, align 8
  call void @tcg_gen_mov_i32(ptr noundef %22, ptr noundef %23)
  br label %27

24:                                               ; preds = %3
  br label %25

25:                                               ; preds = %24
  call void @g_assertion_message_expr(ptr noundef null, ptr noundef @.str, i32 noundef 814, ptr noundef @__func__.tcg_gen_ext_i32, ptr noundef null) #8
  unreachable

26:                                               ; No predecessors!
  br label %27

27:                                               ; preds = %26, %21, %18, %15, %12, %9
  ret void
}